; Function Attrs: mustprogress uwtable
define hidden void @_ZN2cv8ximgproc12segmentation43SelectiveSearchSegmentationStrategySizeImpl8setImageERKNS_11_InputArrayES5_S5_i(ptr noundef nonnull align 8 dereferenceable(144) initializes((136, 140)) %0, ptr noundef nonnull align 8 dereferenceable(24) %1, ptr nonnull readnone align 8 captures(none) %2, ptr noundef nonnull align 8 dereferenceable(24) %3, i32 %4) unnamed_addr #3 align 2 personality ptr @__gxx_personality_v0 {
  %6 = alloca %"class.cv::Mat", align 8
  %7 = alloca %"class.cv::Mat", align 8
  call void @llvm.lifetime.start.p0(i64 96, ptr nonnull %6) #29
  %8 = tail call noundef i32 @_ZNK2cv11_InputArray4kindEv(ptr noundef nonnull align 8 dereferenceable(24) %1), !noalias !144
  %9 = icmp eq i32 %8, 65536
  br i1 %9, label %10, label %13

10:                                               ; preds = %5
  %11 = getelementptr inbounds nuw i8, ptr %1, i64 8
  %12 = load ptr, ptr %11, align 8, !tbaa !6, !noalias !144
  call void @_ZN2cv3MatC1ERKS0_(ptr noundef nonnull align 8 dereferenceable(96) %6, ptr noundef nonnull align 8 dereferenceable(96) %12)
  br label %_ZNK2cv11_InputArray6getMatEi.exit

13:                                               ; preds = %5
  call void @_ZNK2cv11_InputArray7getMat_Ei(ptr dead_on_unwind nonnull writable sret(%"class.cv::Mat") align 8 %6, ptr noundef nonnull align 8 dereferenceable(24) %1, i32 noundef -1)
  br label %_ZNK2cv11_InputArray6getMatEi.exit

_ZNK2cv11_InputArray6getMatEi.exit:               ; preds = %10, %13
  %14 = getelementptr inbounds nuw i8, ptr %6, i64 8
  %15 = load i32, ptr %14, align 8, !tbaa !147
  %16 = getelementptr inbounds nuw i8, ptr %6, i64 12
  %17 = load i32, ptr %16, align 4, !tbaa !73
  %18 = mul nsw i32 %17, %15
  %19 = getelementptr inbounds nuw i8, ptr %0, i64 136
  store i32 %18, ptr %19, align 8, !tbaa !148
  call void @llvm.lifetime.start.p0(i64 96, ptr nonnull %7) #29
  %20 = invoke noundef i32 @_ZNK2cv11_InputArray4kindEv(ptr noundef nonnull align 8 dereferenceable(24) %3)
          to label %.noexc unwind label %29

.noexc:                                           ; preds = %_ZNK2cv11_InputArray6getMatEi.exit
  %21 = icmp eq i32 %20, 65536
  br i1 %21, label %22, label %25

22:                                               ; preds = %.noexc
  %23 = getelementptr inbounds nuw i8, ptr %3, i64 8
  %24 = load ptr, ptr %23, align 8, !tbaa !6, !noalias !151
  invoke void @_ZN2cv3MatC1ERKS0_(ptr noundef nonnull align 8 dereferenceable(96) %7, ptr noundef nonnull align 8 dereferenceable(96) %24)
          to label %_ZNK2cv11_InputArray6getMatEi.exit8 unwind label %29

25:                                               ; preds = %.noexc
  invoke void @_ZNK2cv11_InputArray7getMat_Ei(ptr dead_on_unwind nonnull writable sret(%"class.cv::Mat") align 8 %7, ptr noundef nonnull align 8 dereferenceable(24) %3, i32 noundef -1)
          to label %_ZNK2cv11_InputArray6getMatEi.exit8 unwind label %29

_ZNK2cv11_InputArray6getMatEi.exit8:              ; preds = %22, %25
  %26 = getelementptr inbounds nuw i8, ptr %0, i64 40
  %27 = invoke noundef nonnull align 8 dereferenceable(96) ptr @_ZN2cv3MataSEOS0_(ptr noundef nonnull align 8 dereferenceable(96) %26, ptr noundef nonnull align 8 dereferenceable(96) %7)
          to label %28 unwind label %31

28:                                               ; preds = %_ZNK2cv11_InputArray6getMatEi.exit8
  call void @_ZN2cv3MatD1Ev(ptr noundef nonnull align 8 dereferenceable(96) %7) #29
  call void @llvm.lifetime.end.p0(i64 96, ptr nonnull %7) #29
  call void @_ZN2cv3MatD1Ev(ptr noundef nonnull align 8 dereferenceable(96) %6) #29
  call void @llvm.lifetime.end.p0(i64 96, ptr nonnull %6) #29
  ret void

29:                                               ; preds = %25, %22, %_ZNK2cv11_InputArray6getMatEi.exit
  %30 = landingpad { ptr, i32 }
          cleanup
  br label %33

31:                                               ; preds = %_ZNK2cv11_InputArray6getMatEi.exit8
  %32 = landingpad { ptr, i32 }
          cleanup
  call void @_ZN2cv3MatD1Ev(ptr noundef nonnull align 8 dereferenceable(96) %7) #29
  br label %33

33:                                               ; preds = %31, %29
  %.pn = phi { ptr, i32 } [ %32, %31 ], [ %30, %29 ]
  call void @llvm.lifetime.end.p0(i64 96, ptr nonnull %7) #29
  call void @_ZN2cv3MatD1Ev(ptr noundef nonnull align 8 dereferenceable(96) %6) #29
  call void @llvm.lifetime.end.p0(i64 96, ptr nonnull %6) #29
  resume { ptr, i32 } %.pn
}